target datalayout = "e-m:e-p270:32:32-p271:32:32-p272:64:64-i64:64-i128:128-f80:128-n8:16:32:64-S128"
target triple = "x86_64-pc-linux-gnu"

%struct._zend_optimizer_ctx = type { ptr, ptr, ptr, i64, i64 }
%struct._zend_ssa = type { %struct._zend_cfg, i32, i32, ptr, ptr, ptr, ptr }
%struct._zend_cfg = type { i32, i32, ptr, ptr, ptr, i32 }
%struct._zend_arena = type { ptr, ptr, ptr }

; Function Attrs: alwaysinline nounwind uwtable
define internal void @zend_arena_release(ptr noundef %0, ptr noundef %1) #4 {
  %3 = alloca ptr, align 8
  %4 = alloca ptr, align 8
  %5 = alloca ptr, align 8
  %6 = alloca ptr, align 8
  store ptr %0, ptr %3, align 8, !tbaa !149
  store ptr %1, ptr %4, align 8, !tbaa !45
  call void @llvm.lifetime.start.p0(i64 8, ptr %5) #13
  %7 = load ptr, ptr %3, align 8, !tbaa !149
  %8 = load ptr, ptr %7, align 8, !tbaa !146
  store ptr %8, ptr %5, align 8, !tbaa !146
  br label %9

9:                                                ; preds = %33, %2
  %10 = load ptr, ptr %4, align 8, !tbaa !45
  %11 = load ptr, ptr %5, align 8, !tbaa !146
  %12 = getelementptr inbounds nuw %struct._zend_arena, ptr %11, i32 0, i32 1
  %13 = load ptr, ptr %12, align 8, !tbaa !151
  %14 = icmp ugt ptr %10, %13
  %15 = xor i1 %14, true
  %16 = xor i1 %15, true
  %17 = zext i1 %16 to i32
  %18 = sext i32 %17 to i64
  %19 = call i64 @llvm.expect.i64(i64 %18, i64 0)
  %20 = icmp ne i64 %19, 0
  br i1 %20, label %31, label %21

21:                                               ; preds = %9
  %22 = load ptr, ptr %4, align 8, !tbaa !45
  %23 = load ptr, ptr %5, align 8, !tbaa !146
  %24 = icmp ule ptr %22, %23
  %25 = xor i1 %24, true
  %26 = xor i1 %25, true
  %27 = zext i1 %26 to i32
  %28 = sext i32 %27 to i64
  %29 = call i64 @llvm.expect.i64(i64 %28, i64 0)
  %30 = icmp ne i64 %29, 0
  br label %31

31:                                               ; preds = %21, %9
  %32 = phi i1 [ true, %9 ], [ %30, %21 ]
  br i1 %32, label %33, label %40

33:                                               ; preds = %31
  call void @llvm.lifetime.start.p0(i64 8, ptr %6) #13
  %34 = load ptr, ptr %5, align 8, !tbaa !146
  %35 = getelementptr inbounds nuw %struct._zend_arena, ptr %34, i32 0, i32 2
  %36 = load ptr, ptr %35, align 8, !tbaa !152
  store ptr %36, ptr %6, align 8, !tbaa !146
  %37 = load ptr, ptr %5, align 8, !tbaa !146
  call void @_efree(ptr noundef %37)
  %38 = load ptr, ptr %6, align 8, !tbaa !146
  store ptr %38, ptr %5, align 8, !tbaa !146
  %39 = load ptr, ptr %3, align 8, !tbaa !149
  store ptr %38, ptr %39, align 8, !tbaa !146
  call void @llvm.lifetime.end.p0(i64 8, ptr %6) #13
  br label %9

40:                                               ; preds = %31
  %41 = load ptr, ptr %4, align 8, !tbaa !45
  %42 = load ptr, ptr %5, align 8, !tbaa !146
  %43 = icmp ugt ptr %41, %42
  br i1 %43, label %44, label %50

44:                                               ; preds = %40
  %45 = load ptr, ptr %4, align 8, !tbaa !45
  %46 = load ptr, ptr %5, align 8, !tbaa !146
  %47 = getelementptr inbounds nuw %struct._zend_arena, ptr %46, i32 0, i32 1
  %48 = load ptr, ptr %47, align 8, !tbaa !151
  %49 = icmp ule ptr %45, %48
  br label %50

50:                                               ; preds = %44, %40
  %51 = phi i1 [ false, %40 ], [ %49, %44 ]
  call void @llvm.assume(i1 %51)
  %52 = load ptr, ptr %4, align 8, !tbaa !45
  %53 = load ptr, ptr %5, align 8, !tbaa !146
  %54 = getelementptr inbounds nuw %struct._zend_arena, ptr %53, i32 0, i32 0
  store ptr %52, ptr %54, align 8, !tbaa !147
  call void @llvm.lifetime.end.p0(i64 8, ptr %5) #13
  ret void
}

; Function Attrs: alwaysinline nounwind uwtable
define internal ptr @zend_arena_checkpoint(ptr noundef %0) #4 {
  %2 = alloca ptr, align 8
  store ptr %0, ptr %2, align 8, !tbaa !146
  %3 = load ptr, ptr %2, align 8, !tbaa !146
  %4 = getelementptr inbounds nuw %struct._zend_arena, ptr %3, i32 0, i32 0
  %5 = load ptr, ptr %4, align 8, !tbaa !147
  ret ptr %5
}

; Function Attrs: nounwind uwtable
define hidden void @zend_optimize_dfa(ptr noundef %0, ptr noundef %1) #0 {
  %3 = alloca ptr, align 8
  %4 = alloca ptr, align 8
  %5 = alloca ptr, align 8
  %6 = alloca %struct._zend_ssa, align 8
  %7 = alloca i32, align 4
  store ptr %0, ptr %3, align 8, !tbaa !4
  store ptr %1, ptr %4, align 8, !tbaa !9
  call void @llvm.lifetime.start.p0(i64 8, ptr %5) #13
  %8 = load ptr, ptr %4, align 8, !tbaa !9
  %9 = getelementptr inbounds nuw %struct._zend_optimizer_ctx, ptr %8, i32 0, i32 0
  %10 = load ptr, ptr %9, align 8, !tbaa !145
  %11 = call ptr @zend_arena_checkpoint(ptr noundef %10)
  store ptr %11, ptr %5, align 8, !tbaa !45
  call void @llvm.lifetime.start.p0(i64 80, ptr %6) #13
  %12 = load ptr, ptr %3, align 8, !tbaa !4
  %13 = load ptr, ptr %4, align 8, !tbaa !9
  %14 = call i32 @zend_dfa_analyze_op_array(ptr noundef %12, ptr noundef %13, ptr noundef %6)
  %15 = icmp eq i32 %14, -1
  br i1 %15, label %16, label %20

16:                                               ; preds = %2
  %17 = load ptr, ptr %4, align 8, !tbaa !9
  %18 = getelementptr inbounds nuw %struct._zend_optimizer_ctx, ptr %17, i32 0, i32 0
  %19 = load ptr, ptr %5, align 8, !tbaa !45
  call void @zend_arena_release(ptr noundef %18, ptr noundef %19)
  store i32 1, ptr %7, align 4
  br label %26

20:                                               ; preds = %2
  %21 = load ptr, ptr %3, align 8, !tbaa !4
  %22 = load ptr, ptr %4, align 8, !tbaa !9
  call void @zend_dfa_optimize_op_array(ptr noundef %21, ptr noundef %22, ptr noundef %6, ptr noundef null)
  %23 = load ptr, ptr %4, align 8, !tbaa !9
  %24 = getelementptr inbounds nuw %struct._zend_optimizer_ctx, ptr %23, i32 0, i32 0
  %25 = load ptr, ptr %5, align 8, !tbaa !45
  call void @zend_arena_release(ptr noundef %24, ptr noundef %25)
  store i32 0, ptr %7, align 4
  br label %26

26:                                               ; preds = %20, %16
  call void @llvm.lifetime.end.p0(i64 80, ptr %6) #13
  call void @llvm.lifetime.end.p0(i64 8, ptr %5) #13
  %27 = load i32, ptr %7, align 4
  switch i32 %27, label %29 [
    i32 0, label %28
    i32 1, label %28
  ]

28:                                               ; preds = %26, %26
  ret void

29:                                               ; preds = %26
  unreachable
}