; Function Attrs: nounwind uwtable
define hidden void @zend_optimize_dfa(ptr noundef %0, ptr noundef %1) local_unnamed_addr #0 {
  %3 = alloca %struct._zend_ssa, align 8
  %4 = load ptr, ptr %1, align 8, !tbaa !123
  %5 = load ptr, ptr %4, align 8, !tbaa !124
  call void @llvm.lifetime.start.p0(i64 80, ptr nonnull %3) #12
  %6 = call i32 @zend_dfa_analyze_op_array(ptr noundef %0, ptr noundef nonnull %1, ptr noundef nonnull %3)
  %7 = icmp eq i32 %6, -1
  br i1 %7, label %8, label %18

8:                                                ; preds = %2
  %9 = load ptr, ptr %1, align 8, !tbaa !127
  %10 = getelementptr inbounds nuw i8, ptr %9, i64 8
  %11 = load ptr, ptr %10, align 8, !tbaa !128
  %12 = icmp ule ptr %5, %11
  %.not.i17 = icmp ugt ptr %5, %9
  %or.cond.i18 = and i1 %.not.i17, %12
  br i1 %or.cond.i18, label %zend_arena_release.exit, label %.critedge.i, !prof !129

.critedge.i:                                      ; preds = %8, %.critedge.i
  %.0.i19 = phi ptr [ %14, %.critedge.i ], [ %9, %8 ]
  %13 = getelementptr inbounds nuw i8, ptr %.0.i19, i64 16
  %14 = load ptr, ptr %13, align 8, !tbaa !130
  call void @_efree(ptr noundef nonnull %.0.i19) #12
  store ptr %14, ptr %1, align 8, !tbaa !127
  %15 = getelementptr inbounds nuw i8, ptr %14, i64 8
  %16 = load ptr, ptr %15, align 8, !tbaa !128
  %17 = icmp ule ptr %5, %16
  %.not.i = icmp ugt ptr %5, %14
  %or.cond.i = and i1 %.not.i, %17
  br i1 %or.cond.i, label %zend_arena_release.exit, label %.critedge.i, !prof !131

18:                                               ; preds = %2
  call void @zend_dfa_optimize_op_array(ptr noundef %0, ptr noundef nonnull %1, ptr noundef nonnull %3, ptr noundef null)
  %19 = load ptr, ptr %1, align 8, !tbaa !127
  %20 = getelementptr inbounds nuw i8, ptr %19, i64 8
  %21 = load ptr, ptr %20, align 8, !tbaa !128
  %22 = icmp ule ptr %5, %21
  %.not.i1014 = icmp ugt ptr %5, %19
  %or.cond.i1115 = and i1 %.not.i1014, %22
  br i1 %or.cond.i1115, label %zend_arena_release.exit, label %.critedge.i12, !prof !129

.critedge.i12:                                    ; preds = %18, %.critedge.i12
  %.0.i916 = phi ptr [ %24, %.critedge.i12 ], [ %19, %18 ]
  %23 = getelementptr inbounds nuw i8, ptr %.0.i916, i64 16
  %24 = load ptr, ptr %23, align 8, !tbaa !130
  call void @_efree(ptr noundef nonnull %.0.i916) #12
  store ptr %24, ptr %1, align 8, !tbaa !127
  %25 = getelementptr inbounds nuw i8, ptr %24, i64 8
  %26 = load ptr, ptr %25, align 8, !tbaa !128
  %27 = icmp ule ptr %5, %26
  %.not.i10 = icmp ugt ptr %5, %24
  %or.cond.i11 = and i1 %.not.i10, %27
  br i1 %or.cond.i11, label %zend_arena_release.exit, label %.critedge.i12, !prof !131

zend_arena_release.exit:                          ; preds = %.critedge.i12, %.critedge.i, %18, %8
  %.0.i9.lcssa.sink = phi ptr [ %9, %8 ], [ %19, %18 ], [ %14, %.critedge.i ], [ %24, %.critedge.i12 ]
  store ptr %5, ptr %.0.i9.lcssa.sink, align 8, !tbaa !124
  call void @llvm.lifetime.end.p0(i64 80, ptr nonnull %3) #12
  ret void
}